# SymbolsHelper-Confirmed: 4:4.7.2 amd64
libanalitza.so.4 libanalitza4 #MINVER#
 _ZN13AbstractLexer11m_operatorsE@Base 4:4.7.2
 _ZN13AbstractLexer15m_longOperatorsE@Base 4:4.7.2
 _ZN13AbstractLexer3lexEv@Base 4:4.7.2
 _ZN13AbstractLexerC1ERK7QString@Base 4:4.7.2
 _ZN13AbstractLexerC2ERK7QString@Base 4:4.7.2
 _ZN13AbstractLexerD0Ev@Base 4:4.7.2
 _ZN13AbstractLexerD1Ev@Base 4:4.7.2
 _ZN13AbstractLexerD2Ev@Base 4:4.7.2
 _ZN13AnalitzaUtils12objectWalkerERKN8Analitza10ExpressionERK10QByteArray@Base 4:4.7.2
 _ZN13AnalitzaUtils19expressionToVariantERKN8Analitza10ExpressionE@Base 4:4.7.2
 _ZN13AnalitzaUtils19variantToExpressionERK8QVariant@Base 4:4.7.2
 _ZN16ExpressionParser15reallocateStackEv@Base 4:4.7.2
 _ZN16ExpressionParser5parseEP13AbstractLexer@Base 4:4.7.2
 _ZN16ExpressionParserC1Ev@Base 4:4.7.2
 _ZN16ExpressionParserC2Ev@Base 4:4.7.2
 _ZN16ExpressionParserD1Ev@Base 4:4.7.2
 _ZN16ExpressionParserD2Ev@Base 4:4.7.2
 _ZN23MathMLPresentationLexer8getTokenEv@Base 4:4.7.2
 _ZN23MathMLPresentationLexerC1ERK7QString@Base 4:4.7.2
 _ZN23MathMLPresentationLexerC2ERK7QString@Base 4:4.7.2
 _ZN23MathMLPresentationLexerD0Ev@Base 4:4.7.2
 _ZN23MathMLPresentationLexerD1Ev@Base 4:4.7.2
 _ZN23MathMLPresentationLexerD2Ev@Base 4:4.7.2
 _ZN8Analitza10Expression12computeDepthEPNS_6ObjectE@Base 4:4.7.2
 _ZN8Analitza10Expression13constructListERK5QListIS0_E@Base 4:4.7.2
 _ZN8Analitza10Expression14renameArgumentEiRK7QString@Base 4:4.7.2
 _ZN8Analitza10Expression15constructStringERK7QString@Base 4:4.7.2
 _ZN8Analitza10Expression17ExpressionPrivate14listFromStringERK7QString@Base 4:4.7.2
 _ZN8Analitza10Expression17ExpressionPrivate5checkEPKNS_5ApplyE@Base 4:4.7.2
 _ZN8Analitza10Expression17ExpressionPrivate5checkEPKNS_9ContainerE@Base 4:4.7.2
 _ZN8Analitza10Expression17ExpressionPrivate6branchERK11QDomElement@Base 4:4.7.2
 _ZN8Analitza10Expression17ExpressionPrivate6canAddEPKNS_6ObjectES4_@Base 4:4.7.2
 _ZN8Analitza10Expression20isCompleteExpressionERK7QString@Base 4:4.7.2
 _ZN8Analitza10Expression21constructCustomObjectERK8QVariantPFvS3_E@Base 4:4.7.2
 _ZN8Analitza10Expression4treeEv@Base 4:4.7.2
 _ZN8Analitza10Expression5clearEv@Base 4:4.7.2
 _ZN8Analitza10Expression7setTextERK7QString@Base 4:4.7.2
 _ZN8Analitza10Expression7setTreeEPNS_6ObjectE@Base 4:4.7.2
 _ZN8Analitza10Expression8addErrorERK7QString@Base 4:4.7.2
 _ZN8Analitza10Expression8whatTypeERK7QString@Base 4:4.7.2
 _ZN8Analitza10Expression9setMathMLERK7QString@Base 4:4.7.2
 _ZN8Analitza10ExpressionC1EPNS_6ObjectE@Base 4:4.7.2
 _ZN8Analitza10ExpressionC1ERK7QStringb@Base 4:4.7.2
 _ZN8Analitza10ExpressionC1ERKNS_2CnE@Base 4:4.7.2
 _ZN8Analitza10ExpressionC1ERKS0_@Base 4:4.7.2
 _ZN8Analitza10ExpressionC1Ev@Base 4:4.7.2
 _ZN8Analitza10ExpressionC2EPNS_6ObjectE@Base 4:4.7.2
 _ZN8Analitza10ExpressionC2ERK7QStringb@Base 4:4.7.2
 _ZN8Analitza10ExpressionC2ERKNS_2CnE@Base 4:4.7.2
 _ZN8Analitza10ExpressionC2ERKS0_@Base 4:4.7.2
 _ZN8Analitza10ExpressionC2Ev@Base 4:4.7.2
 _ZN8Analitza10ExpressionD1Ev@Base 4:4.7.2
 _ZN8Analitza10ExpressionD2Ev@Base 4:4.7.2
 _ZN8Analitza10ExpressionaSERKS0_@Base 4:4.7.2
 _ZN8Analitza12CustomObjectD0Ev@Base 4:4.7.2
 _ZN8Analitza12CustomObjectD1Ev@Base 4:4.7.2
 _ZN8Analitza12CustomObjectD2Ev@Base 4:4.7.2
 _ZN8Analitza14BuiltinMethods14insertFunctionERK7QStringRKNS_14ExpressionTypeEPNS_18FunctionDefinitionE@Base 4:4.7.2
 _ZN8Analitza14BuiltinMethodsD1Ev@Base 4:4.7.2
 _ZN8Analitza14BuiltinMethodsD2Ev@Base 4:4.7.2
 _ZN8Analitza14ExpressionType11assumptionsEv@Base 4:4.7.2
 _ZN8Analitza14ExpressionType11minimumTypeERKS0_S2_@Base 4:4.7.2
 _ZN8Analitza14ExpressionType12addParameterERKS0_@Base 4:4.7.2
 _ZN8Analitza14ExpressionType12computeStarsERK4QMapIiS0_ERKS0_S6_@Base 4:4.7.2
 _ZN8Analitza14ExpressionType12manyFromArgsERK5QListIS0_E@Base 4:4.7.2
 _ZN8Analitza14ExpressionType13addAssumptionERK7QStringRKS0_@Base 4:4.7.2
 _ZN8Analitza14ExpressionType13increaseStarsEi@Base 4:4.7.2
 _ZN8Analitza14ExpressionType13simplifyStarsEv@Base 4:4.7.2
 _ZN8Analitza14ExpressionType14addAlternativeERKS0_@Base 4:4.7.2
 _ZN8Analitza14ExpressionType14addAssumptionsERK4QMapI7QStringS0_E@Base 4:4.7.2
 _ZN8Analitza14ExpressionType14lambdaFromArgsERK5QListIS0_E@Base 4:4.7.2
 _ZN8Analitza14ExpressionType16assumptionsMergeER4QMapI7QStringS0_ERKS3_@Base 4:4.7.2
 _ZN8Analitza14ExpressionType16assumptionsUnionER4QMapI7QStringS0_ERKS3_@Base 4:4.7.2
 _ZN8Analitza14ExpressionType16clearAssumptionsEv@Base 4:4.7.2
 _ZN8Analitza14ExpressionType16matchAssumptionsEP4QMapIiS0_ERKS1_I7QStringS0_ES7_@Base 4:4.7.2
 _ZN8Analitza14ExpressionType17removeAssumptionsERK11QStringList@Base 4:4.7.2
 _ZN8Analitza14ExpressionType19starsSimplificationERS0_R4QMapIiiERi@Base 4:4.7.2
 _ZN8Analitza14ExpressionType6reduceERKS0_@Base 4:4.7.2
 _ZN8Analitza14ExpressionTypeC1ENS0_4TypeERK5QListIS0_E@Base 4:4.7.2
 _ZN8Analitza14ExpressionTypeC1ENS0_4TypeERKS0_i@Base 4:4.7.2
 _ZN8Analitza14ExpressionTypeC1ENS0_4TypeEi@Base 4:4.7.2
 _ZN8Analitza14ExpressionTypeC1ERK7QString@Base 4:4.7.2
 _ZN8Analitza14ExpressionTypeC1ERKS0_@Base 4:4.7.2
 _ZN8Analitza14ExpressionTypeC2ENS0_4TypeERK5QListIS0_E@Base 4:4.7.2
 _ZN8Analitza14ExpressionTypeC2ENS0_4TypeERKS0_i@Base 4:4.7.2
 _ZN8Analitza14ExpressionTypeC2ENS0_4TypeEi@Base 4:4.7.2
 _ZN8Analitza14ExpressionTypeC2ERK7QString@Base 4:4.7.2
 _ZN8Analitza14ExpressionTypeC2ERKS0_@Base 4:4.7.2
 _ZN8Analitza14ExpressionTypeaSERKS0_@Base 4:4.7.2
 _ZN8Analitza21ExpressionTypeChecker10commonTypeERK5QListIPNS_6ObjectEE@Base 4:4.7.2
 _ZN8Analitza21ExpressionTypeChecker10typeForVarERK7QString@Base 4:4.7.2
 _ZN8Analitza21ExpressionTypeChecker12computePairsERK5QListINS_8TypePairEERKNS_14ExpressionTypeE@Base 4:4.7.2
 (optional=templinst)_ZN8Analitza21ExpressionTypeChecker18acceptListOrVectorINS_4ListEEE7QStringPKT_NS_14ExpressionType4TypeEi@Base 4:4.7.2
 (optional=templinst)_ZN8Analitza21ExpressionTypeChecker18acceptListOrVectorINS_6VectorEEE7QStringPKT_NS_14ExpressionType4TypeEi@Base 4:4.7.2
 _ZN8Analitza21ExpressionTypeChecker5checkERKNS_10ExpressionE@Base 4:4.7.2
 _ZN8Analitza21ExpressionTypeChecker5solveEPKNS_8OperatorERK5QListIPNS_6ObjectEE@Base 4:4.7.2
 _ZN8Analitza21ExpressionTypeChecker6acceptEPKNS_12CustomObjectE@Base 4:4.7.2
 _ZN8Analitza21ExpressionTypeChecker6acceptEPKNS_2CiE@Base 4:4.7.2
 _ZN8Analitza21ExpressionTypeChecker6acceptEPKNS_2CnE@Base 4:4.7.2
 _ZN8Analitza21ExpressionTypeChecker6acceptEPKNS_4ListE@Base 4:4.7.2
 _ZN8Analitza21ExpressionTypeChecker6acceptEPKNS_5ApplyE@Base 4:4.7.2
 _ZN8Analitza21ExpressionTypeChecker6acceptEPKNS_6VectorE@Base 4:4.7.2
 _ZN8Analitza21ExpressionTypeChecker6acceptEPKNS_8OperatorE@Base 4:4.7.2
 _ZN8Analitza21ExpressionTypeChecker6acceptEPKNS_9ContainerE@Base 4:4.7.2
 _ZN8Analitza21ExpressionTypeChecker6typeIsEPKNS_6ObjectERKNS_14ExpressionTypeE@Base 4:4.7.2
 (optional=templinst)_ZN8Analitza21ExpressionTypeChecker6typeIsIN5QListIPNS_6ObjectEE14const_iteratorEEE4QMapI7QStringNS_14ExpressionTypeEET_RKSB_RKS9_@Base 4:4.7.2
 (optional=templinst)_ZN8Analitza21ExpressionTypeChecker6typeIsIPKPNS_6ObjectEEE4QMapI7QStringNS_14ExpressionTypeEET_RKSA_RKS8_@Base 4:4.7.2
 _ZN8Analitza21ExpressionTypeChecker8addErrorERK7QString@Base 4:4.7.2
 _ZN8Analitza21ExpressionTypeChecker9inferTypeERKNS_14ExpressionTypeES3_P4QMapI7QStringS1_E@Base 4:4.7.2
 _ZN8Analitza21ExpressionTypeCheckerC1EPNS_9VariablesE@Base 4:4.7.2
 _ZN8Analitza21ExpressionTypeCheckerC2EPNS_9VariablesE@Base 4:4.7.2
 _ZN8Analitza21ExpressionTypeCheckerD0Ev@Base 4:4.7.2
 _ZN8Analitza21ExpressionTypeCheckerD1Ev@Base 4:4.7.2
 _ZN8Analitza21ExpressionTypeCheckerD2Ev@Base 4:4.7.2
 _ZN8Analitza2CiC1ERK7QString@Base 4:4.7.2
 _ZN8Analitza2CiC2ERK7QString@Base 4:4.7.2
 _ZN8Analitza2CiD0Ev@Base 4:4.7.2
 _ZN8Analitza2CiD1Ev@Base 4:4.7.2
 _ZN8Analitza2CiD2Ev@Base 4:4.7.2
 _ZN8Analitza2Cn1eEv@Base 4:4.7.2
 _ZN8Analitza2Cn2piEv@Base 4:4.7.2
 _ZN8Analitza2Cn5eulerEv@Base 4:4.7.2
 _ZN8Analitza2Cn8decorateERK4QMapI7QStringPPNS_6ObjectEE@Base 4:4.7.2
 _ZN8Analitza2Cn8setValueERK11QDomElement@Base 4:4.7.2
 _ZN8Analitza4List12appendBranchEPNS_6ObjectE@Base 4:4.7.2
 _ZN8Analitza4ListC1ERKS0_@Base 4:4.7.2
 _ZN8Analitza4ListC1Ev@Base 4:4.7.2
 _ZN8Analitza4ListC2ERKS0_@Base 4:4.7.2
 _ZN8Analitza4ListC2Ev@Base 4:4.7.2
 _ZN8Analitza4ListD0Ev@Base 4:4.7.2
 _ZN8Analitza4ListD1Ev@Base 4:4.7.2
 _ZN8Analitza4ListD2Ev@Base 4:4.7.2
 _ZN8Analitza5Apply12appendBranchEPNS_6ObjectE@Base 4:4.7.2
 _ZN8Analitza5Apply13prependBranchEPNS_6ObjectE@Base 4:4.7.2
 _ZN8Analitza5Apply7addBVarEPNS_2CiE@Base 4:4.7.2
 _ZN8Analitza5Apply9addBranchEPNS_6ObjectE@Base 4:4.7.2
 _ZN8Analitza5ApplyC1Ev@Base 4:4.7.2
 _ZN8Analitza5ApplyC2Ev@Base 4:4.7.2
 _ZN8Analitza5ApplyD0Ev@Base 4:4.7.2
 _ZN8Analitza5ApplyD1Ev@Base 4:4.7.2
 _ZN8Analitza5ApplyD2Ev@Base 4:4.7.2
 _ZN8Analitza6Vector12appendBranchEPNS_6ObjectE@Base 4:4.7.2
 _ZN8Analitza6VectorC1ERKS0_@Base 4:4.7.2
 _ZN8Analitza6VectorC1Ei@Base 4:4.7.2
 _ZN8Analitza6VectorC2ERKS0_@Base 4:4.7.2
 _ZN8Analitza6VectorC2Ei@Base 4:4.7.2
 _ZN8Analitza6VectorD0Ev@Base 4:4.7.2
 _ZN8Analitza6VectorD1Ev@Base 4:4.7.2
 _ZN8Analitza6VectorD2Ev@Base 4:4.7.2
 _ZN8Analitza8Analyzer10applyAlphaEPNS_6ObjectEi@Base 4:4.7.2
 _ZN8Analitza8Analyzer10derivativeERK7QString@Base 4:4.7.2
 _ZN8Analitza8Analyzer10derivativeERK7QStringPKNS_6ObjectE@Base 4:4.7.2
 _ZN8Analitza8Analyzer10derivativeERK7QVectorIPNS_6ObjectEE@Base 4:4.7.2
 _ZN8Analitza8Analyzer10simpScalarEPNS_5ApplyE@Base 4:4.7.2
 _ZN8Analitza8Analyzer11calcDeclareEPKNS_9ContainerE@Base 4:4.7.2
 _ZN8Analitza8Analyzer12importScriptEP11QTextStream@Base 4:4.7.2
 _ZN8Analitza8Analyzer13calcPiecewiseEPKNS_9ContainerE@Base 4:4.7.2
 _ZN8Analitza8Analyzer13setExpressionERKNS_10ExpressionE@Base 4:4.7.2
 _ZN8Analitza8Analyzer13simpPiecewiseEPNS_9ContainerE@Base 4:4.7.2
 _ZN8Analitza8Analyzer13variableValueEPNS_2CiE@Base 4:4.7.2
 _ZN8Analitza8Analyzer14builtinMethodsEv@Base 4:4.7.2
 _ZN8Analitza8Analyzer14initBVarsRangeEPKNS_5ApplyEiPNS_6ObjectES5_@Base 4:4.7.2
 _ZN8Analitza8Analyzer14insertVariableERK7QStringPKNS_6ObjectE@Base 4:4.7.2
 _ZN8Analitza8Analyzer14insertVariableERK7QStringRKNS_10ExpressionE@Base 4:4.7.2
 _ZN8Analitza8Analyzer15alphaConversionEPNS_5ApplyEi@Base 4:4.7.2
 _ZN8Analitza8Analyzer15alphaConversionEPNS_9ContainerEi@Base 4:4.7.2
 _ZN8Analitza8Analyzer15calculateLambdaEv@Base 4:4.7.2
 _ZN8Analitza8Analyzer15initializeBVarsEPKNS_5ApplyEi@Base 4:4.7.2
 _ZN8Analitza8Analyzer15simpPolynomialsEPNS_5ApplyE@Base 4:4.7.2
 _ZN8Analitza8Analyzer16boundedOperationERKNS_5ApplyERKNS_8OperatorEPNS_6ObjectE@Base 4:4.7.2
 _ZN8Analitza8Analyzer18initBVarsContainerEPKNS_5ApplyEiPNS_6ObjectE@Base 4:4.7.2
 _ZN8Analitza8Analyzer19insertValueVariableERK7QStringd@Base 4:4.7.2
 _ZN8Analitza8Analyzer3sumERKNS_5ApplyE@Base 4:4.7.2
 _ZN8Analitza8Analyzer4calcEPKNS_6ObjectE@Base 4:4.7.2
 _ZN8Analitza8Analyzer4evalEPKNS_6ObjectEbRK4QSetI7QStringE@Base 4:4.7.2
 _ZN8Analitza8Analyzer4funcERKNS_5ApplyE@Base 4:4.7.2
 _ZN8Analitza8Analyzer4simpEPNS_6ObjectE@Base 4:4.7.2
 _ZN8Analitza8Analyzer6existsERKNS_5ApplyE@Base 4:4.7.2
 _ZN8Analitza8Analyzer6forallERKNS_5ApplyE@Base 4:4.7.2
 _ZN8Analitza8Analyzer7operateEPKNS_5ApplyE@Base 4:4.7.2
 _ZN8Analitza8Analyzer7operateEPKNS_9ContainerE@Base 4:4.7.2
 _ZN8Analitza8Analyzer7productERKNS_5ApplyE@Base 4:4.7.2
 _ZN8Analitza8Analyzer7simpSumEPNS_5ApplyE@Base 4:4.7.2
 _ZN8Analitza8Analyzer8evaluateEv@Base 4:4.7.2
 _ZN8Analitza8Analyzer8levelOutEPNS_5ApplyES2_RN5QListIPNS_6ObjectEE8iteratorE@Base 4:4.7.2
 _ZN8Analitza8Analyzer8simplifyEv@Base 4:4.7.2
 _ZN8Analitza8Analyzer9calculateEv@Base 4:4.7.2
 _ZN8Analitza8Analyzer9simpApplyEPNS_5ApplyE@Base 4:4.7.2
 _ZN8Analitza8AnalyzerC1EPNS_9VariablesE@Base 4:4.7.2
 _ZN8Analitza8AnalyzerC1ERKS0_@Base 4:4.7.2
 _ZN8Analitza8AnalyzerC1Ev@Base 4:4.7.2
 _ZN8Analitza8AnalyzerC2EPNS_9VariablesE@Base 4:4.7.2
 _ZN8Analitza8AnalyzerC2ERKS0_@Base 4:4.7.2
 _ZN8Analitza8AnalyzerC2Ev@Base 4:4.7.2
 _ZN8Analitza8AnalyzerD1Ev@Base 4:4.7.2
 _ZN8Analitza8AnalyzerD2Ev@Base 4:4.7.2
 _ZN8Analitza8Operator14toOperatorTypeERK7QString@Base 4:4.7.2
 _ZN8Analitza8Operator15isTrigonometricENS0_12OperatorTypeE@Base 4:4.7.2
 _ZN8Analitza8Operator20multiplicityOperatorERKNS0_12OperatorTypeE@Base 4:4.7.2
 _ZN8Analitza8Operator5wordsE@Base 4:4.7.2
 _ZN8Analitza8Operator7nparamsENS0_12OperatorTypeE@Base 4:4.7.2
 _ZN8Analitza9Container12appendBranchEPNS_6ObjectE@Base 4:4.7.2
 _ZN8Analitza9Container12m_nameToTypeE@Base 4:4.7.2
 _ZN8Analitza9Container15toContainerTypeERK7QString@Base 4:4.7.2
 _ZN8Analitza9Container9m_typeStrE@Base 4:4.7.2
 _ZN8Analitza9ContainerC1ERKS0_@Base 4:4.7.2
 _ZN8Analitza9ContainerC2ERKS0_@Base 4:4.7.2
 _ZN8Analitza9Variables19initializeConstantsEv@Base 4:4.7.2
 _ZN8Analitza9Variables6modifyERK7QStringPKNS_6ObjectE@Base 4:4.7.2
 _ZN8Analitza9Variables6modifyERK7QStringRKNS_10ExpressionE@Base 4:4.7.2
 _ZN8Analitza9Variables6modifyERK7QStringRKd@Base 4:4.7.2
 _ZN8Analitza9Variables6renameERK7QStringS3_@Base 4:4.7.2
 _ZN8Analitza9VariablesC1ERKS0_@Base 4:4.7.2
 _ZN8Analitza9VariablesC1Ev@Base 4:4.7.2
 _ZN8Analitza9VariablesC2ERKS0_@Base 4:4.7.2
 _ZN8Analitza9VariablesC2Ev@Base 4:4.7.2
 _ZN8Analitza9VariablesD1Ev@Base 4:4.7.2
 _ZN8Analitza9VariablesD2Ev@Base 4:4.7.2
 _ZN8ExpLexer6escapeERK7QString@Base 4:4.7.2
 _ZN8ExpLexer8getTokenEv@Base 4:4.7.2
 _ZN8ExpLexerC1ERK7QString@Base 4:4.7.2
 _ZN8ExpLexerC2ERK7QString@Base 4:4.7.2
 _ZN8ExpLexerD0Ev@Base 4:4.7.2
 _ZN8ExpLexerD1Ev@Base 4:4.7.2
 _ZN8ExpLexerD2Ev@Base 4:4.7.2
 _ZNK13AbstractLexer10printQueueERK6QQueueINS_5TOKENEE@Base 4:4.7.2
 _ZNK8Analitza10Expression10lambdaBodyEv@Base 4:4.7.2
 _ZNK8Analitza10Expression10parametersEv@Base 4:4.7.2
 _ZNK8Analitza10Expression11stringValueEv@Base 4:4.7.2
 _ZNK8Analitza10Expression16toExpressionListEv@Base 4:4.7.2
 _ZNK8Analitza10Expression17customObjectValueEv@Base 4:4.7.2
 _ZNK8Analitza10Expression20toMathMLPresentationEv@Base 4:4.7.2
 _ZNK8Analitza10Expression4treeEv@Base 4:4.7.2
 _ZNK8Analitza10Expression5errorEv@Base 4:4.7.2
 _ZNK8Analitza10Expression6isListEv@Base 4:4.7.2
 _ZNK8Analitza10Expression6isRealEv@Base 4:4.7.2
 _ZNK8Analitza10Expression6toHtmlEv@Base 4:4.7.2
 _ZNK8Analitza10Expression6toRealEv@Base 4:4.7.2
 _ZNK8Analitza10Expression8bvarListEv@Base 4:4.7.2
 _ZNK8Analitza10Expression8isLambdaEv@Base 4:4.7.2
 _ZNK8Analitza10Expression8isVectorEv@Base 4:4.7.2
 _ZNK8Analitza10Expression8toMathMLEv@Base 4:4.7.2
 _ZNK8Analitza10Expression8toStringEv@Base 4:4.7.2
 _ZNK8Analitza10Expression9elementAtEi@Base 4:4.7.2
 _ZNK8Analitza10Expression9isCorrectEv@Base 4:4.7.2
 _ZNK8Analitza10ExpressioneqERKS0_@Base 4:4.7.2
 _ZNK8Analitza12CustomObject4copyEv@Base 4:4.7.2
 _ZNK8Analitza12CustomObject5visitEPNS_16ExpressionWriterE@Base 4:4.7.2
 _ZNK8Analitza12CustomObject7matchesEPKNS_6ObjectEP4QMapI7QStringS3_E@Base 4:4.7.2
 _ZNK8Analitza12CustomObjecteqERKS0_@Base 4:4.7.2
 _ZNK8Analitza14ExpressionType11assumptionsEv@Base 4:4.7.2
 _ZNK8Analitza14ExpressionType11canReduceToERKS0_@Base 4:4.7.2
 _ZNK8Analitza14ExpressionType11returnValueEv@Base 4:4.7.2
 _ZNK8Analitza14ExpressionType11starsToTypeERK4QMapIiS0_E@Base 4:4.7.2
 _ZNK8Analitza14ExpressionType7isErrorEv@Base 4:4.7.2
 _ZNK8Analitza14ExpressionType8toStringEv@Base 4:4.7.2
 _ZNK8Analitza14ExpressionTypeeqERKS0_@Base 4:4.7.2
 _ZNK8Analitza21ExpressionTypeChecker17isVariableDefinedERK7QString@Base 4:4.7.2
 _ZNK8Analitza21ExpressionTypeChecker6errorsEv@Base 4:4.7.2
 _ZNK8Analitza2Ci4copyEv@Base 4:4.7.2
 _ZNK8Analitza2Ci5visitEPNS_16ExpressionWriterE@Base 4:4.7.2
 _ZNK8Analitza2Ci7matchesEPKNS_6ObjectEP4QMapI7QStringS3_E@Base 4:4.7.2
 _ZNK8Analitza2Ci8toMathMLEv@Base 4:4.7.2
 _ZNK8Analitza2Cn4copyEv@Base 4:4.7.2
 _ZNK8Analitza2Cn5visitEPNS_16ExpressionWriterE@Base 4:4.7.2
 _ZNK8Analitza2Cn7matchesEPKNS_6ObjectEP4QMapI7QStringS3_E@Base 4:4.7.2
 _ZNK8Analitza4List4copyEv@Base 4:4.7.2
 _ZNK8Analitza4List5visitEPNS_16ExpressionWriterE@Base 4:4.7.2
 _ZNK8Analitza4List6isZeroEv@Base 4:4.7.2
 _ZNK8Analitza4List7matchesEPKNS_6ObjectEP4QMapI7QStringS3_E@Base 4:4.7.2
 _ZNK8Analitza4ListeqERKS0_@Base 4:4.7.2
 _ZNK8Analitza5Apply11bvarStringsEv@Base 4:4.7.2
 _ZNK8Analitza5Apply12hasBoundingsEv@Base 4:4.7.2
 _ZNK8Analitza5Apply4copyEv@Base 4:4.7.2
 _ZNK8Analitza5Apply5visitEPNS_16ExpressionWriterE@Base 4:4.7.2
 _ZNK8Analitza5Apply7matchesEPKNS_6ObjectEP4QMapI7QStringS3_E@Base 4:4.7.2
 _ZNK8Analitza5ApplyeqERKS0_@Base 4:4.7.2
 _ZNK8Analitza6Object8toStringEv@Base 4:4.7.2
 _ZNK8Analitza6Vector4copyEv@Base 4:4.7.2
 _ZNK8Analitza6Vector5visitEPNS_16ExpressionWriterE@Base 4:4.7.2
 _ZNK8Analitza6Vector6isZeroEv@Base 4:4.7.2
 _ZNK8Analitza6Vector7matchesEPKNS_6ObjectEP4QMapI7QStringS3_E@Base 4:4.7.2
 _ZNK8Analitza6VectoreqERKS0_@Base 4:4.7.2
 _ZNK8Analitza8Analyzer20dependenciesToLambdaEv@Base 4:4.7.2
 _ZNK8Analitza8Operator4copyEv@Base 4:4.7.2
 _ZNK8Analitza8Operator4nameEv@Base 4:4.7.2
 _ZNK8Analitza8Operator5visitEPNS_16ExpressionWriterE@Base 4:4.7.2
 _ZNK8Analitza8Operator7matchesEPKNS_6ObjectEP4QMapI7QStringS3_E@Base 4:4.7.2
 _ZNK8Analitza8Operator9isBoundedEv@Base 4:4.7.2
 _ZNK8Analitza9Container11bvarStringsEv@Base 4:4.7.2
 _ZNK8Analitza9Container11extractTypeENS0_13ContainerTypeE@Base 4:4.7.2
 _ZNK8Analitza9Container4copyEv@Base 4:4.7.2
 _ZNK8Analitza9Container5visitEPNS_16ExpressionWriterE@Base 4:4.7.2
 _ZNK8Analitza9Container6bvarCiEv@Base 4:4.7.2
 _ZNK8Analitza9Container6isZeroEv@Base 4:4.7.2
 _ZNK8Analitza9Container7matchesEPKNS_6ObjectEP4QMapI7QStringS3_E@Base 4:4.7.2
 _ZNK8Analitza9Container7tagNameEv@Base 4:4.7.2
 _ZNK8Analitza9Container8isNumberEv@Base 4:4.7.2
 _ZNK8Analitza9Container9bvarCountEv@Base 4:4.7.2
 _ZNK8Analitza9ContainereqERKS0_@Base 4:4.7.2
 _ZNK8Analitza9Variables15valueExpressionERK7QString@Base 4:4.7.2
 _ZTI13AbstractLexer@Base 4:4.7.2
 _ZTI23MathMLPresentationLexer@Base 4:4.7.2
 _ZTI8ExpLexer@Base 4:4.7.2
 _ZTIN8Analitza12CustomObjectE@Base 4:4.7.2
 _ZTIN8Analitza21ExpressionTypeCheckerE@Base 4:4.7.2
 _ZTIN8Analitza2CiE@Base 4:4.7.2
 _ZTIN8Analitza2CnE@Base 4:4.7.2
 _ZTIN8Analitza4ListE@Base 4:4.7.2
 _ZTIN8Analitza5ApplyE@Base 4:4.7.2
 _ZTIN8Analitza6ObjectE@Base 4:4.7.2
 _ZTIN8Analitza6VectorE@Base 4:4.7.2
 _ZTIN8Analitza8OperatorE@Base 4:4.7.2
 _ZTIN8Analitza9ContainerE@Base 4:4.7.2
 _ZTS13AbstractLexer@Base 4:4.7.2
 _ZTS23MathMLPresentationLexer@Base 4:4.7.2
 _ZTS8ExpLexer@Base 4:4.7.2
 _ZTSN8Analitza12CustomObjectE@Base 4:4.7.2
 _ZTSN8Analitza21ExpressionTypeCheckerE@Base 4:4.7.2
 _ZTSN8Analitza2CiE@Base 4:4.7.2
 _ZTSN8Analitza2CnE@Base 4:4.7.2
 _ZTSN8Analitza4ListE@Base 4:4.7.2
 _ZTSN8Analitza5ApplyE@Base 4:4.7.2
 _ZTSN8Analitza6ObjectE@Base 4:4.7.2
 _ZTSN8Analitza6VectorE@Base 4:4.7.2
 _ZTSN8Analitza8OperatorE@Base 4:4.7.2
 _ZTSN8Analitza9ContainerE@Base 4:4.7.2
 _ZTV13AbstractLexer@Base 4:4.7.2
 _ZTV23MathMLPresentationLexer@Base 4:4.7.2
 _ZTV8ExpLexer@Base 4:4.7.2
 _ZTVN8Analitza12CustomObjectE@Base 4:4.7.2
 _ZTVN8Analitza21ExpressionTypeCheckerE@Base 4:4.7.2
 _ZTVN8Analitza2CiE@Base 4:4.7.2
 _ZTVN8Analitza2CnE@Base 4:4.7.2
 _ZTVN8Analitza4ListE@Base 4:4.7.2
 _ZTVN8Analitza5ApplyE@Base 4:4.7.2
 _ZTVN8Analitza6ObjectE@Base 4:4.7.2
 _ZTVN8Analitza6VectorE@Base 4:4.7.2
 _ZTVN8Analitza8OperatorE@Base 4:4.7.2
 _ZTVN8Analitza9ContainerE@Base 4:4.7.2
