# SymbolsHelper-Confirmed: 4:4.7.2 amd64
libanalitzagui.so.4 libanalitzagui4 #MINVER#
 ABI_4_0@ABI_4_0 4:4.7.2
 _ZN12FunctionEdit11colorChangeEi@ABI_4_0 4:4.7.2
 _ZN12FunctionEdit11qt_metacallEN11QMetaObject4CallEiPPv@ABI_4_0 4:4.7.2
 _ZN12FunctionEdit11qt_metacastEPKc@ABI_4_0 4:4.7.2
 _ZN12FunctionEdit11setFunctionERK7QString@ABI_4_0 4:4.7.2
 _ZN12FunctionEdit12focusInEventEP11QFocusEvent@ABI_4_0 4:4.7.2
 _ZN12FunctionEdit13updateUplimitEv@ABI_4_0 4:4.7.2
 _ZN12FunctionEdit15setOptionsShownEb@ABI_4_0 4:4.7.2
 _ZN12FunctionEdit15updateDownlimitEv@ABI_4_0 4:4.7.2
 _ZN12FunctionEdit16staticMetaObjectE@ABI_4_0 4:4.7.2
 _ZN12FunctionEdit2okEv@ABI_4_0 4:4.7.2
 _ZN12FunctionEdit4editEv@ABI_4_0 4:4.7.2
 _ZN12FunctionEdit5clearEv@ABI_4_0 4:4.7.2
 _ZN12FunctionEdit6acceptEv@ABI_4_0 4:4.7.2
 _ZN12FunctionEdit8setColorERK6QColor@ABI_4_0 4:4.7.2
 _ZN12FunctionEdit8setStateERK7QStringb@ABI_4_0 4:4.7.2
 _ZN12FunctionEditC1EP7QWidget@ABI_4_0 4:4.7.2
 _ZN12FunctionEditC2EP7QWidget@ABI_4_0 4:4.7.2
 _ZN12FunctionEditD0Ev@ABI_4_0 4:4.7.2
 _ZN12FunctionEditD1Ev@ABI_4_0 4:4.7.2
 _ZN12FunctionEditD2Ev@ABI_4_0 4:4.7.2
 _ZN13FunctionsView11qt_metacallEN11QMetaObject4CallEiPPv@ABI_4_0 4:4.7.2
 _ZN13FunctionsView11qt_metacastEPKc@ABI_4_0 4:4.7.2
 _ZN13FunctionsView15mousePressEventEP11QMouseEvent@ABI_4_0 4:4.7.2
 _ZN13FunctionsView16selectionChangedERK14QItemSelectionS2_@ABI_4_0 4:4.7.2
 _ZN13FunctionsView16staticMetaObjectE@ABI_4_0 4:4.7.2
 _ZN13FunctionsViewC1EP7QWidget@ABI_4_0 4:4.7.2
 _ZN13FunctionsViewC2EP7QWidget@ABI_4_0 4:4.7.2
 _ZN13FunctionsViewD0Ev@ABI_4_0 4:4.7.2
 _ZN13FunctionsViewD1Ev@ABI_4_0 4:4.7.2
 _ZN13FunctionsViewD2Ev@ABI_4_0 4:4.7.2
 _ZN14ExpressionEdit10insertTextERK7QString@ABI_4_0 4:4.7.2
 _ZN14ExpressionEdit10setCorrectEb@ABI_4_0 4:4.7.2
 _ZN14ExpressionEdit11qt_metacallEN11QMetaObject4CallEiPPv@ABI_4_0 4:4.7.2
 _ZN14ExpressionEdit11qt_metacastEPKc@ABI_4_0 4:4.7.2
 _ZN14ExpressionEdit11returnPressEv@ABI_4_0 4:4.7.2
 _ZN14ExpressionEdit11setAnalitzaEPN8Analitza8AnalyzerE@ABI_4_0 4:4.7.2
 _ZN14ExpressionEdit12focusInEventEP11QFocusEvent@ABI_4_0 4:4.7.2
 _ZN14ExpressionEdit12signalHelperE7QString@ABI_4_0 4:4.7.2
 _ZN14ExpressionEdit13focusOutEventEP11QFocusEvent@ABI_4_0 4:4.7.2
 _ZN14ExpressionEdit13keyPressEventEP9QKeyEvent@ABI_4_0 4:4.7.2
 _ZN14ExpressionEdit13returnPressedEv@ABI_4_0 4:4.7.2
 _ZN14ExpressionEdit13setActionTextEP7QAction@ABI_4_0 4:4.7.2
 _ZN14ExpressionEdit13setExpressionERKN8Analitza10ExpressionE@ABI_4_0 4:4.7.2
 _ZN14ExpressionEdit14showSimplifiedEv@ABI_4_0 4:4.7.2
 _ZN14ExpressionEdit15updateCompleterEv@ABI_4_0 4:4.7.2
 _ZN14ExpressionEdit16contextMenuEventEP17QContextMenuEvent@ABI_4_0 4:4.7.2
 _ZN14ExpressionEdit16staticMetaObjectE@ABI_4_0 4:4.7.2
 _ZN14ExpressionEdit6helperERK7QString@ABI_4_0 4:4.7.2
 _ZN14ExpressionEdit6helperERK7QStringRK6QPoint@ABI_4_0 4:4.7.2
 _ZN14ExpressionEdit7returnPEv@ABI_4_0 4:4.7.2
 _ZN14ExpressionEdit7setModeEN18AlgebraHighlighter4ModeE@ABI_4_0 4:4.7.2
 _ZN14ExpressionEdit8lastWordEi@ABI_4_0 4:4.7.2
 _ZN14ExpressionEdit8removenlEv@ABI_4_0 4:4.7.2
 _ZN14ExpressionEdit8simplifyEv@ABI_4_0 4:4.7.2
 _ZN14ExpressionEdit9completedERK7QString@ABI_4_0 4:4.7.2
 _ZN14ExpressionEdit9cursorMovEv@ABI_4_0 4:4.7.2
 _ZN14ExpressionEditC1EP7QWidgetN18AlgebraHighlighter4ModeE@ABI_4_0 4:4.7.2
 _ZN14ExpressionEditC2EP7QWidgetN18AlgebraHighlighter4ModeE@ABI_4_0 4:4.7.2
 _ZN14ExpressionEditD0Ev@ABI_4_0 4:4.7.2
 _ZN14ExpressionEditD1Ev@ABI_4_0 4:4.7.2
 _ZN14ExpressionEditD2Ev@ABI_4_0 4:4.7.2
 _ZN14FunctionsModel10removeRowsEiiRK11QModelIndex@ABI_4_0 4:4.7.2
 _ZN14FunctionsModel11addFunctionERK8Function@ABI_4_0 4:4.7.2
 _ZN14FunctionsModel11qt_metacallEN11QMetaObject4CallEiPPv@ABI_4_0 4:4.7.2
 _ZN14FunctionsModel11qt_metacastEPKc@ABI_4_0 4:4.7.2
 _ZN14FunctionsModel11setSelectedERK11QModelIndex@ABI_4_0 4:4.7.2
 _ZN14FunctionsModel11setSelectedERK7QString@ABI_4_0 4:4.7.2
 _ZN14FunctionsModel12editFunctionERK7QStringRK8Function@ABI_4_0 4:4.7.2
 _ZN14FunctionsModel12editFunctionEi@ABI_4_0 4:4.7.2
 _ZN14FunctionsModel12editFunctionEiRK8Function@ABI_4_0 4:4.7.2
 _ZN14FunctionsModel12updatePointsEiRK5QRect@ABI_4_0 4:4.7.2
 _ZN14FunctionsModel13setResolutionEj@ABI_4_0 4:4.7.2
 _ZN14FunctionsModel15currentFunctionEv@ABI_4_0 4:4.7.2
 _ZN14FunctionsModel15functionRemovedERK7QString@ABI_4_0 4:4.7.2
 _ZN14FunctionsModel16functionModifiedERK7QStringRKN8Analitza10ExpressionE@ABI_4_0 4:4.7.2
 _ZN14FunctionsModel16staticMetaObjectE@ABI_4_0 4:4.7.2
 _ZN14FunctionsModel5clearEv@ABI_4_0 4:4.7.2
 _ZN14FunctionsModel6freeIdEv@ABI_4_0 4:4.7.2
 _ZN14FunctionsModel6statusERK7QString@ABI_4_0 4:4.7.2
 _ZN14FunctionsModel7setDataERK11QModelIndexRK8QVarianti@ABI_4_0 4:4.7.2
 _ZN14FunctionsModel8setShownERK7QStringb@ABI_4_0 4:4.7.2
 _ZN14FunctionsModel8unselectEv@ABI_4_0 4:4.7.2
 _ZN14FunctionsModel9calcImageERK7QPointF@ABI_4_0 4:4.7.2
 _ZN14FunctionsModelC1EP7QObject@ABI_4_0 4:4.7.2
 _ZN14FunctionsModelC2EP7QObject@ABI_4_0 4:4.7.2
 _ZN14FunctionsModelD0Ev@ABI_4_0 4:4.7.2
 _ZN14FunctionsModelD1Ev@ABI_4_0 4:4.7.2
 _ZN14FunctionsModelD2Ev@ABI_4_0 4:4.7.2
 _ZN14OperatorsModel11descriptionERKN8Analitza8OperatorE@ABI_4_0 4:4.7.2
 _ZN14OperatorsModel17updateInformationEv@ABI_4_0 4:4.7.2
 _ZN14OperatorsModel24standardFunctionCallHelpERK7QStringiibb@ABI_4_0 4:4.7.2
 _ZN14OperatorsModel6sampleERKN8Analitza8OperatorE@ABI_4_0 4:4.7.2
 _ZN14OperatorsModel7exampleERKN8Analitza8OperatorE@ABI_4_0 4:4.7.2
 _ZN14OperatorsModelC1EP7QObject@ABI_4_0 4:4.7.2
 _ZN14OperatorsModelC2EP7QObject@ABI_4_0 4:4.7.2
 _ZN14OperatorsModelD0Ev@ABI_4_0 4:4.7.2
 _ZN14OperatorsModelD1Ev@ABI_4_0 4:4.7.2
 _ZN14OperatorsModelD2Ev@ABI_4_0 4:4.7.2
 _ZN14VariablesModel11qt_metacallEN11QMetaObject4CallEiPPv@ABI_4_0 4:4.7.2
 _ZN14VariablesModel11qt_metacastEPKc@ABI_4_0 4:4.7.2
 _ZN14VariablesModel14insertVariableERK7QStringRKN8Analitza10ExpressionE@ABI_4_0 4:4.7.2
 _ZN14VariablesModel16staticMetaObjectE@ABI_4_0 4:4.7.2
 _ZN14VariablesModel17updateInformationEv@ABI_4_0 4:4.7.2
 _ZN14VariablesModel7setDataERK11QModelIndexRK8QVarianti@ABI_4_0 4:4.7.2
 _ZN14VariablesModelC1EPN8Analitza9VariablesEP7QObject@ABI_4_0 4:4.7.2
 _ZN14VariablesModelC2EPN8Analitza9VariablesEP7QObject@ABI_4_0 4:4.7.2
 _ZN14VariablesModelD0Ev@ABI_4_0 4:4.7.2
 _ZN14VariablesModelD1Ev@ABI_4_0 4:4.7.2
 _ZN14VariablesModelD2Ev@ABI_4_0 4:4.7.2
 _ZN15FunctionFactory16registerFunctionERK11QStringListPFP12FunctionImplRKN8Analitza10ExpressionEPNS5_9VariablesEEPFNS5_14ExpressionTypeEvES2_@ABI_4_0 4:4.7.2
 _ZN15FunctionFactory4selfEv@ABI_4_0 4:4.7.2
 _ZN15FunctionFactory4typeERK11QStringList@ABI_4_0 4:4.7.2
 _ZN15FunctionFactory6m_selfE@ABI_4_0 4:4.7.2
 _ZN18AlgebraHighlighter14highlightBlockERK7QString@ABI_4_0 4:4.7.2
 _ZN18AlgebraHighlighterC1EP13QTextDocumentPKN8Analitza8AnalyzerE@ABI_4_0 4:4.7.2
 _ZN18AlgebraHighlighterC2EP13QTextDocumentPKN8Analitza8AnalyzerE@ABI_4_0 4:4.7.2
 _ZN18AlgebraHighlighterD0Ev@ABI_4_0 4:4.7.2
 _ZN18AlgebraHighlighterD1Ev@ABI_4_0 4:4.7.2
 _ZN18AlgebraHighlighterD2Ev@ABI_4_0 4:4.7.2
 _ZN7Graph2D10m_axeColorE@ABI_4_0 4:4.7.2
 _ZN7Graph2D10paintEventEP11QPaintEvent@ABI_4_0 4:4.7.2
 _ZN7Graph2D10wheelEventEP11QWheelEvent@ABI_4_0 4:4.7.2
 _ZN7Graph2D11m_axe2ColorE@ABI_4_0 4:4.7.2
 _ZN7Graph2D11qt_metacallEN11QMetaObject4CallEiPPv@ABI_4_0 4:4.7.2
 _ZN7Graph2D11qt_metacastEPKc@ABI_4_0 4:4.7.2
 _ZN7Graph2D11removeFuncsERK11QModelIndexii@ABI_4_0 4:4.7.2
 _ZN7Graph2D11resizeEventEP12QResizeEvent@ABI_4_0 4:4.7.2
 _ZN7Graph2D11setReadOnlyEb@ABI_4_0 4:4.7.2
 _ZN7Graph2D11setViewportERK6QRectFb@ABI_4_0 4:4.7.2
 _ZN7Graph2D11updateScaleEb@ABI_4_0 4:4.7.2
 _ZN7Graph2D12toBiggerRectERK6QRectF@ABI_4_0 4:4.7.2
 _ZN7Graph2D13drawFunctionsEP12QPaintDevice@ABI_4_0 4:4.7.2
 _ZN7Graph2D13drawPolarAxesEP8QPainter@ABI_4_0 4:4.7.2
 _ZN7Graph2D13keyPressEventEP9QKeyEvent@ABI_4_0 4:4.7.2
 _ZN7Graph2D14mouseMoveEventEP11QMouseEvent@ABI_4_0 4:4.7.2
 _ZN7Graph2D15mousePressEventEP11QMouseEvent@ABI_4_0 4:4.7.2
 _ZN7Graph2D15viewportChangedERK6QRectF@ABI_4_0 4:4.7.2
 _ZN7Graph2D16staticMetaObjectE@ABI_4_0 4:4.7.2
 _ZN7Graph2D17drawCartesianAxesEP8QPainter@ABI_4_0 4:4.7.2
 _ZN7Graph2D17m_derivativeColorE@ABI_4_0 4:4.7.2
 _ZN7Graph2D17mouseReleaseEventEP11QMouseEvent@ABI_4_0 4:4.7.2
 _ZN7Graph2D18setKeepAspectRatioEb@ABI_4_0 4:4.7.2
 _ZN7Graph2D6statusERK7QString@ABI_4_0 4:4.7.2
 _ZN7Graph2D6updateERK11QModelIndexS2_@ABI_4_0 4:4.7.2
 _ZN7Graph2D6zoomInEv@ABI_4_0 4:4.7.2
 _ZN7Graph2D7toImageERK7QStringNS_6FormatE@ABI_4_0 4:4.7.2
 _ZN7Graph2D7zoomOutEv@ABI_4_0 4:4.7.2
 _ZN7Graph2D8addFuncsERK11QModelIndexii@ABI_4_0 4:4.7.2
 _ZN7Graph2D8drawAxesEP8QPainterN8Function3AxeE@ABI_4_0 4:4.7.2
 _ZN7Graph2D8setModelEP14FunctionsModel@ABI_4_0 4:4.7.2
 _ZN7Graph2D8unselectEv@ABI_4_0 4:4.7.2
 _ZN7Graph2DC1EP14FunctionsModelP7QWidget@ABI_4_0 4:4.7.2
 _ZN7Graph2DC2EP14FunctionsModelP7QWidget@ABI_4_0 4:4.7.2
 _ZN7Graph2DD0Ev@ABI_4_0 4:4.7.2
 _ZN7Graph2DD1Ev@ABI_4_0 4:4.7.2
 _ZN7Graph2DD2Ev@ABI_4_0 4:4.7.2
 _ZN8Function13setResolutionEj@ABI_4_0 4:4.7.2
 _ZN8Function13update_pointsERK5QRect@ABI_4_0 4:4.7.2
 _ZN8Function4calcERK7QPointF@ABI_4_0 4:4.7.2
 _ZN8FunctionC1ERK7QStringRKN8Analitza10ExpressionEPNS3_9VariablesERK4QPendd@ABI_4_0 4:4.7.2
 _ZN8FunctionC1ERKS_@ABI_4_0 4:4.7.2
 _ZN8FunctionC1Ev@ABI_4_0 4:4.7.2
 _ZN8FunctionC2ERK7QStringRKN8Analitza10ExpressionEPNS3_9VariablesERK4QPendd@ABI_4_0 4:4.7.2
 _ZN8FunctionC2ERKS_@ABI_4_0 4:4.7.2
 _ZN8FunctionC2Ev@ABI_4_0 4:4.7.2
 _ZN8FunctionD1Ev@ABI_4_0 4:4.7.2
 _ZN8FunctionD2Ev@ABI_4_0 4:4.7.2
 _ZN8FunctionaSERKS_@ABI_4_0 4:4.7.2
 _ZNK12FunctionEdit10expressionEv@ABI_4_0 4:4.7.2
 _ZNK12FunctionEdit10metaObjectEv@ABI_4_0 4:4.7.2
 _ZNK12FunctionEdit14createFunctionEv@ABI_4_0 4:4.7.2
 _ZNK12FunctionEdit8isMathMLEv@ABI_4_0 4:4.7.2
 _ZNK13FunctionsView10metaObjectEv@ABI_4_0 4:4.7.2
 _ZNK14ExpressionEdit10expressionEv@ABI_4_0 4:4.7.2
 _ZNK14ExpressionEdit10metaObjectEv@ABI_4_0 4:4.7.2
 _ZNK14ExpressionEdit8helpShowERK7QStringibPKN8Analitza9VariablesE@ABI_4_0 4:4.7.2
 _ZNK14ExpressionEdit8isMathMLEv@ABI_4_0 4:4.7.2
 _ZNK14FunctionsModel10headerDataEiN2Qt11OrientationEi@ABI_4_0 4:4.7.2
 _ZNK14FunctionsModel10metaObjectEv@ABI_4_0 4:4.7.2
 _ZNK14FunctionsModel15currentFunctionEv@ABI_4_0 4:4.7.2
 _ZNK14FunctionsModel4dataERK11QModelIndexi@ABI_4_0 4:4.7.2
 _ZNK14FunctionsModel5flagsERK11QModelIndex@ABI_4_0 4:4.7.2
 _ZNK14FunctionsModel5slopeERK7QPointF@ABI_4_0 4:4.7.2
 _ZNK14FunctionsModel8rowCountERK11QModelIndex@ABI_4_0 4:4.7.2
 _ZNK14OperatorsModel10headerDataEiN2Qt11OrientationEi@ABI_4_0 4:4.7.2
 _ZNK14OperatorsModel11columnCountERK11QModelIndex@ABI_4_0 4:4.7.2
 _ZNK14OperatorsModel13parameterHelpERK11QModelIndexib@ABI_4_0 4:4.7.2
 _ZNK14OperatorsModel20indexForOperatorNameERK7QString@ABI_4_0 4:4.7.2
 _ZNK14OperatorsModel4dataERK11QModelIndexi@ABI_4_0 4:4.7.2
 _ZNK14OperatorsModel8rowCountERK11QModelIndex@ABI_4_0 4:4.7.2
 _ZNK14VariablesModel10headerDataEiN2Qt11OrientationEi@ABI_4_0 4:4.7.2
 _ZNK14VariablesModel10metaObjectEv@ABI_4_0 4:4.7.2
 _ZNK14VariablesModel4dataERK11QModelIndexi@ABI_4_0 4:4.7.2
 _ZNK14VariablesModel5flagsERK11QModelIndex@ABI_4_0 4:4.7.2
 _ZNK14VariablesModel8rowCountERK11QModelIndex@ABI_4_0 4:4.7.2
 _ZNK15FunctionFactory4itemERK11QStringListRKN8Analitza10ExpressionEPNS3_9VariablesE@ABI_4_0 4:4.7.2
 _ZNK15FunctionFactory8containsERK11QStringList@ABI_4_0 4:4.7.2
 _ZNK15FunctionFactory8examplesEv@ABI_4_0 4:4.7.2
 _ZNK18AlgebraHighlighter11editingNameEv@ABI_4_0 4:4.7.2
 _ZNK18AlgebraHighlighter13editingBoundsEv@ABI_4_0 4:4.7.2
 _ZNK18AlgebraHighlighter16editingParameterEv@ABI_4_0 4:4.7.2
 _ZNK7Graph2D10fromWidgetERK6QPoint@ABI_4_0 4:4.7.2
 _ZNK7Graph2D10metaObjectEv@ABI_4_0 4:4.7.2
 _ZNK7Graph2D10toViewportERK6QPoint@ABI_4_0 4:4.7.2
 _ZNK7Graph2D15definedViewportEv@ABI_4_0 4:4.7.2
 _ZNK7Graph2D5slopeERK7QPointF@ABI_4_0 4:4.7.2
 _ZNK7Graph2D8toWidgetERK6QLineF@ABI_4_0 4:4.7.2
 _ZNK7Graph2D8toWidgetERK7QPointF@ABI_4_0 4:4.7.2
 _ZNK7Graph2D9calcImageERK7QPointF@ABI_4_0 4:4.7.2
 _ZNK8Function10derivativeERK7QPointF@ABI_4_0 4:4.7.2
 _ZNK8Function10expressionEv@ABI_4_0 4:4.7.2
 _ZNK8Function10resolutionEv@ABI_4_0 4:4.7.2
 _ZNK8Function15allDisconnectedEv@ABI_4_0 4:4.7.2
 _ZNK8Function4iconEv@ABI_4_0 4:4.7.2
 _ZNK8Function5jumpsEv@ABI_4_0 4:4.7.2
 _ZNK8Function6errorsEv@ABI_4_0 4:4.7.2
 _ZNK8Function6pointsEv@ABI_4_0 4:4.7.2
 _ZNK8Function7axeTypeEv@ABI_4_0 4:4.7.2
 _ZNK8Function7isShownEv@ABI_4_0 4:4.7.2
 _ZNK8Function9isCorrectEv@ABI_4_0 4:4.7.2
 _ZTI12FunctionEdit@ABI_4_0 4:4.7.2
 _ZTI13FunctionsView@ABI_4_0 4:4.7.2
 _ZTI14ExpressionEdit@ABI_4_0 4:4.7.2
 _ZTI14FunctionsModel@ABI_4_0 4:4.7.2
 _ZTI14OperatorsModel@ABI_4_0 4:4.7.2
 _ZTI14VariablesModel@ABI_4_0 4:4.7.2
 _ZTI18AlgebraHighlighter@ABI_4_0 4:4.7.2
 _ZTI7Graph2D@ABI_4_0 4:4.7.2
 _ZTIN8Analitza6ObjectE@ABI_4_0 4:4.7.2
 _ZTS12FunctionEdit@ABI_4_0 4:4.7.2
 _ZTS13FunctionsView@ABI_4_0 4:4.7.2
 _ZTS14ExpressionEdit@ABI_4_0 4:4.7.2
 _ZTS14FunctionsModel@ABI_4_0 4:4.7.2
 _ZTS14OperatorsModel@ABI_4_0 4:4.7.2
 _ZTS14VariablesModel@ABI_4_0 4:4.7.2
 _ZTS18AlgebraHighlighter@ABI_4_0 4:4.7.2
 _ZTS7Graph2D@ABI_4_0 4:4.7.2
 _ZTSN8Analitza6ObjectE@ABI_4_0 4:4.7.2
 _ZTV12FunctionEdit@ABI_4_0 4:4.7.2
 _ZTV13FunctionsView@ABI_4_0 4:4.7.2
 _ZTV14ExpressionEdit@ABI_4_0 4:4.7.2
 _ZTV14FunctionsModel@ABI_4_0 4:4.7.2
 _ZTV14OperatorsModel@ABI_4_0 4:4.7.2
 _ZTV14VariablesModel@ABI_4_0 4:4.7.2
 _ZTV18AlgebraHighlighter@ABI_4_0 4:4.7.2
 _ZTV7Graph2D@ABI_4_0 4:4.7.2
 _ZTVN8Analitza6ObjectE@ABI_4_0 4:4.7.2
 (c++)"non-virtual thunk to ExpressionEdit::~ExpressionEdit()@ABI_4_0" 4:4.7.2
 (c++)"non-virtual thunk to FunctionEdit::~FunctionEdit()@ABI_4_0" 4:4.7.2
 (c++)"non-virtual thunk to FunctionsView::~FunctionsView()@ABI_4_0" 4:4.7.2
 (c++)"non-virtual thunk to Graph2D::~Graph2D()@ABI_4_0" 4:4.7.2
